target datalayout = "e-m:e-p270:32:32-p271:32:32-p272:64:64-i64:64-i128:128-f80:128-n8:16:32:64-S128"
target triple = "x86_64-pc-linux-gnu"

%"class.clang::LangOptionsBase" = type <{ i64, i64, i64, i64, i64, i64, i64, i64, i64, i64, i64, i64, i64, i64, i64, i64, i64, i64, i64, i64, i64, i64, i64, i64, i64, i16, [2 x i8] }>
%"class.clang::FPOptions" = type { i32 }

; Function Attrs: mustprogress nounwind uwtable
define linkonce_odr hidden noundef i32 @_ZNK5clang9FPOptions25getSpecifiedExceptionModeEv(ptr noundef nonnull align 4 dereferenceable(4) %0) #0 comdat align 2 {
  %2 = alloca ptr, align 8
  store ptr %0, ptr %2, align 8
  %3 = load ptr, ptr %2, align 8
  %4 = getelementptr inbounds nuw %"class.clang::FPOptions", ptr %3, i32 0, i32 0
  %5 = load i32, ptr %4, align 4
  %6 = and i32 %5, 192
  %7 = lshr i32 %6, 6
  ret i32 %7
}

; Function Attrs: mustprogress nounwind uwtable
define linkonce_odr hidden noundef zeroext i1 @_ZNK5clang9FPOptions15getRoundingMathEv(ptr noundef nonnull align 4 dereferenceable(4) %0) #0 comdat align 2 {
  %2 = alloca ptr, align 8
  store ptr %0, ptr %2, align 8
  %3 = load ptr, ptr %2, align 8
  %4 = getelementptr inbounds nuw %"class.clang::FPOptions", ptr %3, i32 0, i32 0
  %5 = load i32, ptr %4, align 4
  %6 = and i32 %5, 4
  %7 = lshr i32 %6, 2
  %8 = icmp ne i32 %7, 0
  ret i1 %8
}

; Function Attrs: mustprogress nounwind uwtable
define linkonce_odr hidden noundef zeroext i1 @_ZNK5clang9FPOptions18getAllowFEnvAccessEv(ptr noundef nonnull align 4 dereferenceable(4) %0) #0 comdat align 2 {
  %2 = alloca ptr, align 8
  store ptr %0, ptr %2, align 8
  %3 = load ptr, ptr %2, align 8
  %4 = getelementptr inbounds nuw %"class.clang::FPOptions", ptr %3, i32 0, i32 0
  %5 = load i32, ptr %4, align 4
  %6 = and i32 %5, 256
  %7 = lshr i32 %6, 8
  %8 = icmp ne i32 %7, 0
  ret i1 %8
}

; Function Attrs: mustprogress nounwind uwtable
define linkonce_odr hidden noundef signext i8 @_ZNK5clang9FPOptions20getConstRoundingModeEv(ptr noundef nonnull align 4 dereferenceable(4) %0) #0 comdat align 2 {
  %2 = alloca ptr, align 8
  store ptr %0, ptr %2, align 8
  %3 = load ptr, ptr %2, align 8
  %4 = getelementptr inbounds nuw %"class.clang::FPOptions", ptr %3, i32 0, i32 0
  %5 = load i32, ptr %4, align 4
  %6 = and i32 %5, 56
  %7 = lshr i32 %6, 3
  %8 = trunc i32 %7 to i8
  ret i8 %8
}

; Function Attrs: mustprogress nounwind uwtable
define linkonce_odr hidden void @_ZN5clang9FPOptions15setComplexRangeENS_15LangOptionsBase16ComplexRangeKindE(ptr noundef nonnull align 4 dereferenceable(4) %0, i32 noundef %1) #0 comdat align 2 {
  %3 = alloca ptr, align 8
  %4 = alloca i32, align 4
  store ptr %0, ptr %3, align 8
  store i32 %1, ptr %4, align 4
  %5 = load ptr, ptr %3, align 8
  %6 = getelementptr inbounds nuw %"class.clang::FPOptions", ptr %5, i32 0, i32 0
  %7 = load i32, ptr %6, align 4
  %8 = and i32 %7, -12582913
  %9 = load i32, ptr %4, align 4
  %10 = shl i32 %9, 22
  %11 = or i32 %8, %10
  %12 = getelementptr inbounds nuw %"class.clang::FPOptions", ptr %5, i32 0, i32 0
  store i32 %11, ptr %12, align 4
  ret void
}

; Function Attrs: mustprogress nounwind uwtable
define linkonce_odr hidden noundef i32 @_ZNK5clang11LangOptions15getComplexRangeEv(ptr noundef nonnull align 8 dereferenceable(841) %0) #0 comdat align 2 {
  %2 = alloca ptr, align 8
  store ptr %0, ptr %2, align 8
  %3 = load ptr, ptr %2, align 8
  %4 = getelementptr inbounds nuw %"class.clang::LangOptionsBase", ptr %3, i32 0, i32 23
  %5 = load i64, ptr %4, align 8
  %6 = lshr i64 %5, 46
  %7 = and i64 %6, 3
  %8 = trunc i64 %7 to i32
  ret i32 %8
}

; Function Attrs: mustprogress nounwind uwtable
define linkonce_odr hidden void @_ZN5clang9FPOptions18setAllowFEnvAccessEb(ptr noundef nonnull align 4 dereferenceable(4) %0, i1 noundef zeroext %1) #0 comdat align 2 {
  %3 = alloca ptr, align 8
  %4 = alloca i8, align 1
  store ptr %0, ptr %3, align 8
  %5 = zext i1 %1 to i8
  store i8 %5, ptr %4, align 1
  %6 = load ptr, ptr %3, align 8
  %7 = getelementptr inbounds nuw %"class.clang::FPOptions", ptr %6, i32 0, i32 0
  %8 = load i32, ptr %7, align 4
  %9 = and i32 %8, -257
  %10 = load i8, ptr %4, align 1
  %11 = trunc i8 %10 to i1
  %12 = zext i1 %11 to i32
  %13 = shl i32 %12, 8
  %14 = or i32 %9, %13
  %15 = getelementptr inbounds nuw %"class.clang::FPOptions", ptr %6, i32 0, i32 0
  store i32 %14, ptr %15, align 4
  ret void
}

; Function Attrs: mustprogress nounwind uwtable
define linkonce_odr hidden noundef i32 @_ZNK5clang9FPOptions16getExceptionModeEv(ptr noundef nonnull align 4 dereferenceable(4) %0) #0 comdat align 2 {
  %2 = alloca i32, align 4
  %3 = alloca ptr, align 8
  %4 = alloca i32, align 4
  store ptr %0, ptr %3, align 8
  %5 = load ptr, ptr %3, align 8
  %6 = call noundef i32 @_ZNK5clang9FPOptions25getSpecifiedExceptionModeEv(ptr noundef nonnull align 4 dereferenceable(4) %5)
  store i32 %6, ptr %4, align 4
  %7 = load i32, ptr %4, align 4
  %8 = icmp eq i32 %7, 3
  br i1 %8, label %9, label %13

9:                                                ; preds = %1
  %10 = call noundef zeroext i1 @_ZNK5clang9FPOptions18getAllowFEnvAccessEv(ptr noundef nonnull align 4 dereferenceable(4) %5)
  br i1 %10, label %11, label %12

11:                                               ; preds = %9
  store i32 2, ptr %2, align 4
  br label %15

12:                                               ; preds = %9
  store i32 0, ptr %2, align 4
  br label %15

13:                                               ; preds = %1
  %14 = load i32, ptr %4, align 4
  store i32 %14, ptr %2, align 4
  br label %15

15:                                               ; preds = %13, %12, %11
  %16 = load i32, ptr %2, align 4
  ret i32 %16
}

; Function Attrs: mustprogress nounwind uwtable
define linkonce_odr hidden noundef signext i8 @_ZNK5clang9FPOptions15getRoundingModeEv(ptr noundef nonnull align 4 dereferenceable(4) %0) #0 comdat align 2 {
  %2 = alloca ptr, align 8
  %3 = alloca i8, align 1
  store ptr %0, ptr %2, align 8
  %4 = load ptr, ptr %2, align 8
  %5 = call noundef signext i8 @_ZNK5clang9FPOptions20getConstRoundingModeEv(ptr noundef nonnull align 4 dereferenceable(4) %4)
  store i8 %5, ptr %3, align 1
  %6 = load i8, ptr %3, align 1
  %7 = icmp eq i8 %6, 7
  br i1 %7, label %8, label %14

8:                                                ; preds = %1
  %9 = call noundef zeroext i1 @_ZNK5clang9FPOptions18getAllowFEnvAccessEv(ptr noundef nonnull align 4 dereferenceable(4) %4)
  br i1 %9, label %13, label %10

10:                                               ; preds = %8
  %11 = call noundef zeroext i1 @_ZNK5clang9FPOptions15getRoundingMathEv(ptr noundef nonnull align 4 dereferenceable(4) %4)
  br i1 %11, label %13, label %12

12:                                               ; preds = %10
  store i8 1, ptr %3, align 1
  br label %13

13:                                               ; preds = %12, %10, %8
  br label %14

14:                                               ; preds = %13, %1
  %15 = load i8, ptr %3, align 1
  ret i8 %15
}

; Function Attrs: mustprogress nounwind uwtable
define linkonce_odr hidden noundef i32 @_ZNK5clang9FPOptions17getFPContractModeEv(ptr noundef nonnull align 4 dereferenceable(4) %0) #0 comdat align 2 {
  %2 = alloca ptr, align 8
  store ptr %0, ptr %2, align 8
  %3 = load ptr, ptr %2, align 8
  %4 = getelementptr inbounds nuw %"class.clang::FPOptions", ptr %3, i32 0, i32 0
  %5 = load i32, ptr %4, align 4
  %6 = and i32 %5, 3
  %7 = lshr i32 %6, 0
  ret i32 %7
}

; Function Attrs: mustprogress nounwind uwtable
define linkonce_odr hidden void @_ZN5clang9FPOptions18setAllowApproxFuncEb(ptr noundef nonnull align 4 dereferenceable(4) %0, i1 noundef zeroext %1) #0 comdat align 2 {
  %3 = alloca ptr, align 8
  %4 = alloca i8, align 1
  store ptr %0, ptr %3, align 8
  %5 = zext i1 %1 to i8
  store i8 %5, ptr %4, align 1
  %6 = load ptr, ptr %3, align 8
  %7 = getelementptr inbounds nuw %"class.clang::FPOptions", ptr %6, i32 0, i32 0
  %8 = load i32, ptr %7, align 4
  %9 = and i32 %8, -16385
  %10 = load i8, ptr %4, align 1
  %11 = trunc i8 %10 to i1
  %12 = zext i1 %11 to i32
  %13 = shl i32 %12, 14
  %14 = or i32 %9, %13
  %15 = getelementptr inbounds nuw %"class.clang::FPOptions", ptr %6, i32 0, i32 0
  store i32 %14, ptr %15, align 4
  ret void
}

; Function Attrs: mustprogress nounwind uwtable
define linkonce_odr hidden void @_ZN5clang9FPOptions18setAllowReciprocalEb(ptr noundef nonnull align 4 dereferenceable(4) %0, i1 noundef zeroext %1) #0 comdat align 2 {
  %3 = alloca ptr, align 8
  %4 = alloca i8, align 1
  store ptr %0, ptr %3, align 8
  %5 = zext i1 %1 to i8
  store i8 %5, ptr %4, align 1
  %6 = load ptr, ptr %3, align 8
  %7 = getelementptr inbounds nuw %"class.clang::FPOptions", ptr %6, i32 0, i32 0
  %8 = load i32, ptr %7, align 4
  %9 = and i32 %8, -8193
  %10 = load i8, ptr %4, align 1
  %11 = trunc i8 %10 to i1
  %12 = zext i1 %11 to i32
  %13 = shl i32 %12, 13
  %14 = or i32 %9, %13
  %15 = getelementptr inbounds nuw %"class.clang::FPOptions", ptr %6, i32 0, i32 0
  store i32 %14, ptr %15, align 4
  ret void
}

; Function Attrs: mustprogress nounwind uwtable
define linkonce_odr hidden void @_ZN5clang9FPOptions15setNoSignedZeroEb(ptr noundef nonnull align 4 dereferenceable(4) %0, i1 noundef zeroext %1) #0 comdat align 2 {
  %3 = alloca ptr, align 8
  %4 = alloca i8, align 1
  store ptr %0, ptr %3, align 8
  %5 = zext i1 %1 to i8
  store i8 %5, ptr %4, align 1
  %6 = load ptr, ptr %3, align 8
  %7 = getelementptr inbounds nuw %"class.clang::FPOptions", ptr %6, i32 0, i32 0
  %8 = load i32, ptr %7, align 4
  %9 = and i32 %8, -4097
  %10 = load i8, ptr %4, align 1
  %11 = trunc i8 %10 to i1
  %12 = zext i1 %11 to i32
  %13 = shl i32 %12, 12
  %14 = or i32 %9, %13
  %15 = getelementptr inbounds nuw %"class.clang::FPOptions", ptr %6, i32 0, i32 0
  store i32 %14, ptr %15, align 4
  ret void
}

; Function Attrs: mustprogress nounwind uwtable
define linkonce_odr hidden void @_ZN5clang9FPOptions14setNoHonorInfsEb(ptr noundef nonnull align 4 dereferenceable(4) %0, i1 noundef zeroext %1) #0 comdat align 2 {
  %3 = alloca ptr, align 8
  %4 = alloca i8, align 1
  store ptr %0, ptr %3, align 8
  %5 = zext i1 %1 to i8
  store i8 %5, ptr %4, align 1
  %6 = load ptr, ptr %3, align 8
  %7 = getelementptr inbounds nuw %"class.clang::FPOptions", ptr %6, i32 0, i32 0
  %8 = load i32, ptr %7, align 4
  %9 = and i32 %8, -2049
  %10 = load i8, ptr %4, align 1
  %11 = trunc i8 %10 to i1
  %12 = zext i1 %11 to i32
  %13 = shl i32 %12, 11
  %14 = or i32 %9, %13
  %15 = getelementptr inbounds nuw %"class.clang::FPOptions", ptr %6, i32 0, i32 0
  store i32 %14, ptr %15, align 4
  ret void
}

; Function Attrs: mustprogress nounwind uwtable
define linkonce_odr hidden void @_ZN5clang9FPOptions14setNoHonorNaNsEb(ptr noundef nonnull align 4 dereferenceable(4) %0, i1 noundef zeroext %1) #0 comdat align 2 {
  %3 = alloca ptr, align 8
  %4 = alloca i8, align 1
  store ptr %0, ptr %3, align 8
  %5 = zext i1 %1 to i8
  store i8 %5, ptr %4, align 1
  %6 = load ptr, ptr %3, align 8
  %7 = getelementptr inbounds nuw %"class.clang::FPOptions", ptr %6, i32 0, i32 0
  %8 = load i32, ptr %7, align 4
  %9 = and i32 %8, -1025
  %10 = load i8, ptr %4, align 1
  %11 = trunc i8 %10 to i1
  %12 = zext i1 %11 to i32
  %13 = shl i32 %12, 10
  %14 = or i32 %9, %13
  %15 = getelementptr inbounds nuw %"class.clang::FPOptions", ptr %6, i32 0, i32 0
  store i32 %14, ptr %15, align 4
  ret void
}

; Function Attrs: mustprogress nounwind uwtable
define linkonce_odr hidden void @_ZN5clang9FPOptions21setAllowFPReassociateEb(ptr noundef nonnull align 4 dereferenceable(4) %0, i1 noundef zeroext %1) #0 comdat align 2 {
  %3 = alloca ptr, align 8
  %4 = alloca i8, align 1
  store ptr %0, ptr %3, align 8
  %5 = zext i1 %1 to i8
  store i8 %5, ptr %4, align 1
  %6 = load ptr, ptr %3, align 8
  %7 = getelementptr inbounds nuw %"class.clang::FPOptions", ptr %6, i32 0, i32 0
  %8 = load i32, ptr %7, align 4
  %9 = and i32 %8, -513
  %10 = load i8, ptr %4, align 1
  %11 = trunc i8 %10 to i1
  %12 = zext i1 %11 to i32
  %13 = shl i32 %12, 9
  %14 = or i32 %9, %13
  %15 = getelementptr inbounds nuw %"class.clang::FPOptions", ptr %6, i32 0, i32 0
  store i32 %14, ptr %15, align 4
  ret void
}

; Function Attrs: mustprogress nounwind uwtable
define linkonce_odr hidden void @_ZN5clang9FPOptions25setSpecifiedExceptionModeENS_15LangOptionsBase19FPExceptionModeKindE(ptr noundef nonnull align 4 dereferenceable(4) %0, i32 noundef %1) #0 comdat align 2 {
  %3 = alloca ptr, align 8
  %4 = alloca i32, align 4
  store ptr %0, ptr %3, align 8
  store i32 %1, ptr %4, align 4
  %5 = load ptr, ptr %3, align 8
  %6 = getelementptr inbounds nuw %"class.clang::FPOptions", ptr %5, i32 0, i32 0
  %7 = load i32, ptr %6, align 4
  %8 = and i32 %7, -193
  %9 = load i32, ptr %4, align 4
  %10 = shl i32 %9, 6
  %11 = or i32 %8, %10
  %12 = getelementptr inbounds nuw %"class.clang::FPOptions", ptr %5, i32 0, i32 0
  store i32 %11, ptr %12, align 4
  ret void
}

; Function Attrs: mustprogress nounwind uwtable
define linkonce_odr hidden noundef i32 @_ZNK5clang11LangOptions18getFPExceptionModeEv(ptr noundef nonnull align 8 dereferenceable(841) %0) #0 comdat align 2 {
  %2 = alloca ptr, align 8
  store ptr %0, ptr %2, align 8
  %3 = load ptr, ptr %2, align 8
  %4 = getelementptr inbounds nuw %"class.clang::LangOptionsBase", ptr %3, i32 0, i32 24
  %5 = load i64, ptr %4, align 8
  %6 = lshr i64 %5, 25
  %7 = and i64 %6, 3
  %8 = trunc i64 %7 to i32
  ret i32 %8
}

; Function Attrs: mustprogress nounwind uwtable
define linkonce_odr hidden void @_ZN5clang9FPOptions20setConstRoundingModeEN4llvm12RoundingModeE(ptr noundef nonnull align 4 dereferenceable(4) %0, i8 noundef signext %1) #0 comdat align 2 {
  %3 = alloca ptr, align 8
  %4 = alloca i8, align 1
  store ptr %0, ptr %3, align 8
  store i8 %1, ptr %4, align 1
  %5 = load ptr, ptr %3, align 8
  %6 = getelementptr inbounds nuw %"class.clang::FPOptions", ptr %5, i32 0, i32 0
  %7 = load i32, ptr %6, align 4
  %8 = and i32 %7, -57
  %9 = load i8, ptr %4, align 1
  %10 = sext i8 %9 to i32
  %11 = shl i32 %10, 3
  %12 = or i32 %8, %11
  %13 = getelementptr inbounds nuw %"class.clang::FPOptions", ptr %5, i32 0, i32 0
  store i32 %12, ptr %13, align 4
  ret void
}

; Function Attrs: mustprogress nounwind uwtable
define linkonce_odr hidden void @_ZN5clang9FPOptions15setRoundingMathEb(ptr noundef nonnull align 4 dereferenceable(4) %0, i1 noundef zeroext %1) #0 comdat align 2 {
  %3 = alloca ptr, align 8
  %4 = alloca i8, align 1
  store ptr %0, ptr %3, align 8
  %5 = zext i1 %1 to i8
  store i8 %5, ptr %4, align 1
  %6 = load ptr, ptr %3, align 8
  %7 = getelementptr inbounds nuw %"class.clang::FPOptions", ptr %6, i32 0, i32 0
  %8 = load i32, ptr %7, align 4
  %9 = and i32 %8, -5
  %10 = load i8, ptr %4, align 1
  %11 = trunc i8 %10 to i1
  %12 = zext i1 %11 to i32
  %13 = shl i32 %12, 2
  %14 = or i32 %9, %13
  %15 = getelementptr inbounds nuw %"class.clang::FPOptions", ptr %6, i32 0, i32 0
  store i32 %14, ptr %15, align 4
  ret void
}

; Function Attrs: mustprogress nounwind uwtable
define linkonce_odr hidden void @_ZN5clang9FPOptions17setFPContractModeENS_15LangOptionsBase10FPModeKindE(ptr noundef nonnull align 4 dereferenceable(4) %0, i32 noundef %1) #0 comdat align 2 {
  %3 = alloca ptr, align 8
  %4 = alloca i32, align 4
  store ptr %0, ptr %3, align 8
  store i32 %1, ptr %4, align 4
  %5 = load ptr, ptr %3, align 8
  %6 = getelementptr inbounds nuw %"class.clang::FPOptions", ptr %5, i32 0, i32 0
  %7 = load i32, ptr %6, align 4
  %8 = and i32 %7, -4
  %9 = load i32, ptr %4, align 4
  %10 = shl i32 %9, 0
  %11 = or i32 %8, %10
  %12 = getelementptr inbounds nuw %"class.clang::FPOptions", ptr %5, i32 0, i32 0
  store i32 %11, ptr %12, align 4
  ret void
}

; Function Attrs: mustprogress nounwind uwtable
define linkonce_odr hidden noundef i32 @_ZNK5clang11LangOptions24getDefaultFPContractModeEv(ptr noundef nonnull align 8 dereferenceable(841) %0) #0 comdat align 2 {
  %2 = alloca ptr, align 8
  store ptr %0, ptr %2, align 8
  %3 = load ptr, ptr %2, align 8
  %4 = getelementptr inbounds nuw %"class.clang::LangOptionsBase", ptr %3, i32 0, i32 24
  %5 = load i64, ptr %4, align 8
  %6 = lshr i64 %5, 23
  %7 = and i64 %6, 3
  %8 = trunc i64 %7 to i32
  ret i32 %8
}

; Function Attrs: mustprogress nounwind uwtable
define linkonce_odr hidden void @_ZN5clang9FPOptionsC2ERKNS_11LangOptionsE(ptr noundef nonnull align 4 dereferenceable(4) %0, ptr noundef nonnull align 8 dereferenceable(841) %1) unnamed_addr #0 comdat align 2 {
  %3 = alloca ptr, align 8
  %4 = alloca ptr, align 8
  %5 = alloca i32, align 4
  store ptr %0, ptr %3, align 8
  store ptr %1, ptr %4, align 8
  %6 = load ptr, ptr %3, align 8
  %7 = getelementptr inbounds nuw %"class.clang::FPOptions", ptr %6, i32 0, i32 0
  store i32 0, ptr %7, align 4
  %8 = load ptr, ptr %4, align 8
  %9 = call noundef i32 @_ZNK5clang11LangOptions24getDefaultFPContractModeEv(ptr noundef nonnull align 8 dereferenceable(841) %8)
  store i32 %9, ptr %5, align 4
  %10 = load i32, ptr %5, align 4
  %11 = icmp eq i32 %10, 3
  br i1 %11, label %12, label %13

12:                                               ; preds = %2
  store i32 2, ptr %5, align 4
  br label %13

13:                                               ; preds = %12, %2
  %14 = load i32, ptr %5, align 4
  call void @_ZN5clang9FPOptions17setFPContractModeENS_15LangOptionsBase10FPModeKindE(ptr noundef nonnull align 4 dereferenceable(4) %6, i32 noundef %14)
  %15 = load ptr, ptr %4, align 8
  %16 = getelementptr inbounds nuw %"class.clang::LangOptionsBase", ptr %15, i32 0, i32 13
  %17 = load i64, ptr %16, align 8
  %18 = lshr i64 %17, 23
  %19 = and i64 %18, 1
  %20 = trunc i64 %19 to i32
  %21 = icmp ne i32 %20, 0
  call void @_ZN5clang9FPOptions15setRoundingMathEb(ptr noundef nonnull align 4 dereferenceable(4) %6, i1 noundef zeroext %21)
  call void @_ZN5clang9FPOptions20setConstRoundingModeEN4llvm12RoundingModeE(ptr noundef nonnull align 4 dereferenceable(4) %6, i8 noundef signext 7)
  %22 = load ptr, ptr %4, align 8
  %23 = call noundef i32 @_ZNK5clang11LangOptions18getFPExceptionModeEv(ptr noundef nonnull align 8 dereferenceable(841) %22)
  call void @_ZN5clang9FPOptions25setSpecifiedExceptionModeENS_15LangOptionsBase19FPExceptionModeKindE(ptr noundef nonnull align 4 dereferenceable(4) %6, i32 noundef %23)
  %24 = load ptr, ptr %4, align 8
  %25 = getelementptr inbounds nuw %"class.clang::LangOptionsBase", ptr %24, i32 0, i32 5
  %26 = load i64, ptr %25, align 8
  %27 = lshr i64 %26, 46
  %28 = and i64 %27, 1
  %29 = trunc i64 %28 to i32
  %30 = icmp ne i32 %29, 0
  call void @_ZN5clang9FPOptions21setAllowFPReassociateEb(ptr noundef nonnull align 4 dereferenceable(4) %6, i1 noundef zeroext %30)
  %31 = load ptr, ptr %4, align 8
  %32 = getelementptr inbounds nuw %"class.clang::LangOptionsBase", ptr %31, i32 0, i32 5
  %33 = load i64, ptr %32, align 8
  %34 = lshr i64 %33, 47
  %35 = and i64 %34, 1
  %36 = trunc i64 %35 to i32
  %37 = icmp ne i32 %36, 0
  call void @_ZN5clang9FPOptions14setNoHonorNaNsEb(ptr noundef nonnull align 4 dereferenceable(4) %6, i1 noundef zeroext %37)
  %38 = load ptr, ptr %4, align 8
  %39 = getelementptr inbounds nuw %"class.clang::LangOptionsBase", ptr %38, i32 0, i32 5
  %40 = load i64, ptr %39, align 8
  %41 = lshr i64 %40, 48
  %42 = and i64 %41, 1
  %43 = trunc i64 %42 to i32
  %44 = icmp ne i32 %43, 0
  call void @_ZN5clang9FPOptions14setNoHonorInfsEb(ptr noundef nonnull align 4 dereferenceable(4) %6, i1 noundef zeroext %44)
  %45 = load ptr, ptr %4, align 8
  %46 = getelementptr inbounds nuw %"class.clang::LangOptionsBase", ptr %45, i32 0, i32 5
  %47 = load i64, ptr %46, align 8
  %48 = lshr i64 %47, 49
  %49 = and i64 %48, 1
  %50 = trunc i64 %49 to i32
  %51 = icmp ne i32 %50, 0
  call void @_ZN5clang9FPOptions15setNoSignedZeroEb(ptr noundef nonnull align 4 dereferenceable(4) %6, i1 noundef zeroext %51)
  %52 = load ptr, ptr %4, align 8
  %53 = getelementptr inbounds nuw %"class.clang::LangOptionsBase", ptr %52, i32 0, i32 5
  %54 = load i64, ptr %53, align 8
  %55 = lshr i64 %54, 50
  %56 = and i64 %55, 1
  %57 = trunc i64 %56 to i32
  %58 = icmp ne i32 %57, 0
  call void @_ZN5clang9FPOptions18setAllowReciprocalEb(ptr noundef nonnull align 4 dereferenceable(4) %6, i1 noundef zeroext %58)
  %59 = load ptr, ptr %4, align 8
  %60 = getelementptr inbounds nuw %"class.clang::LangOptionsBase", ptr %59, i32 0, i32 5
  %61 = load i64, ptr %60, align 8
  %62 = lshr i64 %61, 51
  %63 = and i64 %62, 1
  %64 = trunc i64 %63 to i32
  %65 = icmp ne i32 %64, 0
  call void @_ZN5clang9FPOptions18setAllowApproxFuncEb(ptr noundef nonnull align 4 dereferenceable(4) %6, i1 noundef zeroext %65)
  %66 = call noundef i32 @_ZNK5clang9FPOptions17getFPContractModeEv(ptr noundef nonnull align 4 dereferenceable(4) %6)
  %67 = icmp eq i32 %66, 1
  br i1 %67, label %68, label %75

68:                                               ; preds = %13
  %69 = call noundef signext i8 @_ZNK5clang9FPOptions15getRoundingModeEv(ptr noundef nonnull align 4 dereferenceable(4) %6)
  %70 = icmp eq i8 %69, 7
  br i1 %70, label %71, label %75

71:                                               ; preds = %68
  %72 = call noundef i32 @_ZNK5clang9FPOptions16getExceptionModeEv(ptr noundef nonnull align 4 dereferenceable(4) %6)
  %73 = icmp eq i32 %72, 2
  br i1 %73, label %74, label %75

74:                                               ; preds = %71
  call void @_ZN5clang9FPOptions18setAllowFEnvAccessEb(ptr noundef nonnull align 4 dereferenceable(4) %6, i1 noundef zeroext true)
  br label %76

75:                                               ; preds = %71, %68, %13
  call void @_ZN5clang9FPOptions18setAllowFEnvAccessEb(ptr noundef nonnull align 4 dereferenceable(4) %6, i1 noundef zeroext false)
  br label %76

76:                                               ; preds = %75, %74
  %77 = load ptr, ptr %4, align 8
  %78 = call noundef i32 @_ZNK5clang11LangOptions15getComplexRangeEv(ptr noundef nonnull align 8 dereferenceable(841) %77)
  call void @_ZN5clang9FPOptions15setComplexRangeENS_15LangOptionsBase16ComplexRangeKindE(ptr noundef nonnull align 4 dereferenceable(4) %6, i32 noundef %78)
  ret void
}

; Function Attrs: mustprogress nounwind uwtable
define dso_local i32 @_ZN5clang9FPOptions29defaultWithoutTrailingStorageERKNS_11LangOptionsE(ptr noundef nonnull align 8 dereferenceable(841) %0) #0 align 2 {
  %2 = alloca %"class.clang::FPOptions", align 4
  %3 = alloca ptr, align 8
  store ptr %0, ptr %3, align 8
  %4 = load ptr, ptr %3, align 8
  call void @_ZN5clang9FPOptionsC2ERKNS_11LangOptionsE(ptr noundef nonnull align 4 dereferenceable(4) %2, ptr noundef nonnull align 8 dereferenceable(841) %4)
  %5 = getelementptr inbounds nuw %"class.clang::FPOptions", ptr %2, i32 0, i32 0
  %6 = load i32, ptr %5, align 4
  ret i32 %6
}