; Function Attrs: mustprogress nofree norecurse nosync nounwind willreturn memory(argmem: read) uwtable
define dso_local range(i32 56, 16777216) i32 @_ZN5clang9FPOptions29defaultWithoutTrailingStorageERKNS_11LangOptionsE(ptr nocapture noundef nonnull readonly align 8 dereferenceable(841) %0) local_unnamed_addr #3 align 2 {
  %2 = getelementptr inbounds nuw i8, ptr %0, i64 192
  %3 = load i64, ptr %2, align 8
  %4 = trunc i64 %3 to i32
  %5 = lshr i32 %4, 23
  %6 = and i32 %5, 3
  %7 = icmp eq i32 %6, 3
  %spec.store.select.i = select i1 %7, i32 2, i32 %6
  %8 = getelementptr inbounds nuw i8, ptr %0, i64 104
  %9 = load i64, ptr %8, align 8
  %10 = trunc i64 %9 to i32
  %11 = lshr i32 %10, 21
  %12 = and i32 %11, 4
  %13 = lshr i32 %4, 19
  %14 = and i32 %13, 192
  %15 = getelementptr inbounds nuw i8, ptr %0, i64 40
  %16 = load i64, ptr %15, align 8
  %17 = lshr i64 %16, 37
  %18 = trunc nuw nsw i64 %17 to i32
  %19 = and i32 %18, 32256
  %20 = icmp eq i32 %spec.store.select.i, 1
  %.not3.i.i = icmp ne i32 %12, 0
  %or.cond.not16.i = select i1 %20, i1 %.not3.i.i, i1 false
  %21 = and i32 %4, 100663296
  %22 = icmp eq i32 %21, 67108864
  %or.cond15.i = select i1 %or.cond.not16.i, i1 %22, i1 false
  %masksel.i = select i1 %or.cond15.i, i32 256, i32 0
  %23 = getelementptr inbounds nuw i8, ptr %0, i64 184
  %24 = load i64, ptr %23, align 8
  %sh.diff.i = lshr i64 %24, 24
  %tr.sh.diff.i = trunc i64 %sh.diff.i to i32
  %25 = and i32 %tr.sh.diff.i, 12582912
  %26 = or disjoint i32 %14, %19
  %27 = or disjoint i32 %26, %25
  %28 = or disjoint i32 %27, %masksel.i
  %29 = or disjoint i32 %28, %12
  %30 = or disjoint i32 %29, %spec.store.select.i
  %31 = or i32 %30, 56
  ret i32 %31
}